; Function Attrs: nounwind uwtable
define ptr @l_List_foldl___at_Lean_Compiler_LCNF_UnreachableBranches_Value_proj___spec__1___boxed(ptr noundef %0, ptr noundef %1, ptr noundef %2) local_unnamed_addr #1 {
  br label %4

4:                                                ; preds = %14, %3
  %.010.i = phi ptr [ %2, %3 ], [ %18, %14 ]
  %.0.i = phi ptr [ %1, %3 ], [ %20, %14 ]
  %5 = ptrtoint ptr %.010.i to i64
  %6 = and i64 %5, 1
  %.not.i.i = icmp eq i64 %6, 0
  br i1 %.not.i.i, label %10, label %7

7:                                                ; preds = %4
  %8 = lshr i64 %5, 1
  %9 = trunc i64 %8 to i32
  br label %lean_obj_tag.exit.i

10:                                               ; preds = %4
  %11 = getelementptr i8, ptr %.010.i, i64 4
  %.val.i.i = load i32, ptr %11, align 4
  %12 = lshr i32 %.val.i.i, 24
  br label %lean_obj_tag.exit.i

lean_obj_tag.exit.i:                              ; preds = %10, %7
  %.0.i.i = phi i32 [ %9, %7 ], [ %12, %10 ]
  %13 = icmp eq i32 %.0.i.i, 0
  br i1 %13, label %l_List_foldl___at_Lean_Compiler_LCNF_UnreachableBranches_Value_proj___spec__1.exit, label %14

14:                                               ; preds = %lean_obj_tag.exit.i
  %15 = getelementptr inbounds nuw i8, ptr %.010.i, i64 8
  %16 = load ptr, ptr %15, align 8, !tbaa !11
  %17 = getelementptr inbounds nuw i8, ptr %.010.i, i64 16
  %18 = load ptr, ptr %17, align 8, !tbaa !11
  %19 = tail call ptr @l_Lean_Compiler_LCNF_UnreachableBranches_Value_proj(ptr noundef %16, ptr noundef %0)
  %20 = tail call ptr @l_Lean_Compiler_LCNF_UnreachableBranches_Value_merge(ptr noundef %.0.i, ptr noundef %19)
  br label %4

l_List_foldl___at_Lean_Compiler_LCNF_UnreachableBranches_Value_proj___spec__1.exit: ; preds = %lean_obj_tag.exit.i
  %21 = ptrtoint ptr %2 to i64
  %22 = and i64 %21, 1
  %.not = icmp eq i64 %22, 0
  br i1 %.not, label %23, label %lean_dec.exit6

23:                                               ; preds = %l_List_foldl___at_Lean_Compiler_LCNF_UnreachableBranches_Value_proj___spec__1.exit
  %24 = load i32, ptr %2, align 4, !tbaa !4
  %25 = icmp sgt i32 %24, 1
  br i1 %25, label %26, label %28, !prof !13

26:                                               ; preds = %23
  %27 = add nsw i32 %24, -1
  store i32 %27, ptr %2, align 4, !tbaa !4
  br label %lean_dec.exit6

28:                                               ; preds = %23
  %.not.i = icmp eq i32 %24, 0
  br i1 %.not.i, label %lean_dec.exit6, label %29

29:                                               ; preds = %28
  tail call void @lean_dec_ref_cold(ptr noundef nonnull %2) #8
  br label %lean_dec.exit6

lean_dec.exit6:                                   ; preds = %29, %28, %26, %l_List_foldl___at_Lean_Compiler_LCNF_UnreachableBranches_Value_proj___spec__1.exit
  %30 = ptrtoint ptr %0 to i64
  %31 = and i64 %30, 1
  %.not9 = icmp eq i64 %31, 0
  br i1 %.not9, label %32, label %lean_dec.exit

32:                                               ; preds = %lean_dec.exit6
  %33 = load i32, ptr %0, align 4, !tbaa !4
  %34 = icmp sgt i32 %33, 1
  br i1 %34, label %35, label %37, !prof !13

35:                                               ; preds = %32
  %36 = add nsw i32 %33, -1
  store i32 %36, ptr %0, align 4, !tbaa !4
  br label %lean_dec.exit

37:                                               ; preds = %32
  %.not.i7 = icmp eq i32 %33, 0
  br i1 %.not.i7, label %lean_dec.exit, label %38

38:                                               ; preds = %37
  tail call void @lean_dec_ref_cold(ptr noundef nonnull %0) #8
  br label %lean_dec.exit

lean_dec.exit:                                    ; preds = %38, %37, %35, %lean_dec.exit6
  ret ptr %.0.i
}